Certificate:
    Data:
        Version: 3 (0x2)
        Serial Number: 53 (0x35)
        Signature Algorithm: sha256WithRSAEncryption
        Issuer: C=US, O=Google, OU=Enterprise, CN=Single Root CA
        Validity
            Not Before: Dec 19 11:35:41 2024 GMT
            Not After : Dec 19 11:35:41 2034 GMT
        Subject: C=US, O=Google, OU=Enterprise, CN=gcs.somedomain.com
        Subject Public Key Info:
            Public Key Algorithm: rsaEncryption
                Public-Key: (2048 bit)
                Modulus:
                    00:ba:68:16:7c:b8:54:0e:4a:78:b9:6f:21:2c:66:
                    e1:79:50:61:4a:2f:ee:88:f7:ab:cc:6a:70:a9:02:
                    d2:f8:52:0f:10:ef:99:a8:5b:12:2d:1d:b4:fd:12:
                    28:d8:a5:65:86:62:cb:62:c6:28:c9:13:8b:63:94:
                    ca:08:ca:71:34:9c:a2:0d:c9:e2:4f:9e:93:e9:74:
                    4b:0a:89:bf:05:7e:4b:79:58:27:db:b7:e9:b6:1c:
                    95:aa:e0:a1:e7:b4:47:7c:ed:b3:1c:81:f7:83:98:
                    01:d5:ad:1d:00:71:9e:9b:d7:7d:76:41:99:79:f3:
                    fc:ba:fc:18:f0:e2:89:e7:15:fd:d2:0e:d7:00:71:
                    79:13:0d:96:9f:02:e9:57:c8:ad:24:85:dd:e1:09:
                    7e:4a:b4:8b:82:3d:0a:7d:a6:5e:74:80:d3:e7:e8:
                    6b:f9:f7:57:91:00:0e:43:3d:18:8e:c6:27:40:67:
                    3b:b5:0b:b4:3b:b9:cc:f0:cb:d9:c9:8a:38:10:9e:
                    d8:82:7c:1e:ef:5d:6c:62:e0:53:a7:fc:86:77:2e:
                    d5:68:02:41:88:fd:9f:bb:52:ee:71:97:19:70:79:
                    49:1a:9e:b6:72:ae:3f:bd:18:11:3f:a0:7d:5f:90:
                    2e:de:93:ea:9c:45:d7:69:27:dd:c3:68:fe:0a:e7:
                    5a:d7
                Exponent: 65537 (0x10001)
        X509v3 extensions:
            X509v3 Key Usage: critical
                Digital Signature
            X509v3 Basic Constraints: 
                CA:FALSE
            X509v3 Extended Key Usage: 
                TLS Web Server Authentication
            X509v3 Subject Key Identifier: 
                F2:9B:AD:9D:40:69:9E:FF:6B:F5:2F:BD:94:15:83:F7:C3:96:21:8F
            X509v3 Authority Key Identifier: 
                EC:F0:EA:53:53:3F:9F:23:DC:C1:0E:31:10:37:07:DE:DE:E7:6E:F3
            Authority Information Access: 
                CA Issuers - URI:http://pki.esodemoapp2.com/ca/root-ca.cer
            X509v3 CRL Distribution Points: 
                Full Name:
                  URI:http://pki.esodemoapp2.com/ca/root-ca.crl
            X509v3 Subject Alternative Name: 
                DNS:gcs.somedomain.com
    Signature Algorithm: sha256WithRSAEncryption
    Signature Value:
        45:3a:f7:f5:c3:2b:da:85:db:0c:91:fa:74:6f:ff:4a:50:38:
        3b:63:dc:23:0e:47:78:7a:30:83:71:8c:64:64:93:22:a6:dd:
        48:42:8a:9a:37:36:13:7b:c8:b6:5e:3f:78:45:8c:63:9d:dc:
        d7:bd:cb:ae:34:8c:a9:4f:73:d6:5a:a4:51:e3:d9:7c:9a:ab:
        2b:02:f9:1e:eb:9a:20:9f:5e:1e:ac:27:85:60:07:9e:a7:7a:
        00:f2:04:54:00:21:f2:ac:2b:da:a2:9c:4c:3a:a0:84:8b:2e:
        96:7b:60:9b:21:6c:ae:1d:24:79:90:4e:4a:d7:34:ac:2e:ae:
        ce:c7:8a:d5:b7:2e:46:8d:c2:79:cb:65:74:8c:b6:73:90:aa:
        50:8a:c6:d6:4d:8f:d3:45:24:ff:e7:13:2a:cb:0a:e7:08:7f:
        54:e9:39:a1:2b:c6:ad:97:0e:35:a8:7f:5b:db:9a:14:80:ee:
        f2:9a:35:a4:77:40:dd:62:7a:45:6f:cd:50:86:18:ca:21:7b:
        45:57:96:10:fa:c9:f8:72:3b:d5:91:0a:5d:83:2b:ce:cc:6e:
        22:32:2f:35:f3:e9:76:d6:06:44:4c:c4:40:1a:47:09:a7:22:
        54:96:95:b8:a0:b8:e9:b6:de:bf:ac:d8:68:2c:b3:ad:9f:31:
        c2:8e:0c:b2
-----BEGIN CERTIFICATE-----
MIIELzCCAxegAwIBAgIBNTANBgkqhkiG9w0BAQsFADBMMQswCQYDVQQGEwJVUzEP
MA0GA1UECgwGR29vZ2xlMRMwEQYDVQQLDApFbnRlcnByaXNlMRcwFQYDVQQDDA5T
aW5nbGUgUm9vdCBDQTAeFw0yNDEyMTkxMTM1NDFaFw0zNDEyMTkxMTM1NDFaMFAx
CzAJBgNVBAYTAlVTMQ8wDQYDVQQKDAZHb29nbGUxEzARBgNVBAsMCkVudGVycHJp
c2UxGzAZBgNVBAMMEmdjcy5zb21lZG9tYWluLmNvbTCCASIwDQYJKoZIhvcNAQEB
BQADggEPADCCAQoCggEBALpoFny4VA5KeLlvISxm4XlQYUov7oj3q8xqcKkC0vhS
DxDvmahbEi0dtP0SKNilZYZiy2LGKMkTi2OUygjKcTScog3J4k+ek+l0SwqJvwV+
S3lYJ9u36bYclargoee0R3ztsxyB94OYAdWtHQBxnpvXfXZBmXnz/Lr8GPDiiecV
/dIO1wBxeRMNlp8C6VfIrSSF3eEJfkq0i4I9Cn2mXnSA0+foa/n3V5EADkM9GI7G
J0BnO7ULtDu5zPDL2cmKOBCe2IJ8Hu9dbGLgU6f8hncu1WgCQYj9n7tS7nGXGXB5
SRqetnKuP70YET+gfV+QLt6T6pxF12kn3cNo/grnWtcCAwEAAaOCARYwggESMA4G
A1UdDwEB/wQEAwIHgDAJBgNVHRMEAjAAMBMGA1UdJQQMMAoGCCsGAQUFBwMBMB0G
A1UdDgQWBBTym62dQGme/2v1L72UFYP3w5YhjzAfBgNVHSMEGDAWgBTs8OpTUz+f
I9zBDjEQNwfe3udu8zBFBggrBgEFBQcBAQQ5MDcwNQYIKwYBBQUHMAKGKWh0dHA6
Ly9wa2kuZXNvZGVtb2FwcDIuY29tL2NhL3Jvb3QtY2EuY2VyMDoGA1UdHwQzMDEw
L6AtoCuGKWh0dHA6Ly9wa2kuZXNvZGVtb2FwcDIuY29tL2NhL3Jvb3QtY2EuY3Js
MB0GA1UdEQQWMBSCEmdjcy5zb21lZG9tYWluLmNvbTANBgkqhkiG9w0BAQsFAAOC
AQEARTr39cMr2oXbDJH6dG//SlA4O2PcIw5HeHowg3GMZGSTIqbdSEKKmjc2E3vI
tl4/eEWMY53c173LrjSMqU9z1lqkUePZfJqrKwL5HuuaIJ9eHqwnhWAHnqd6APIE
VAAh8qwr2qKcTDqghIsulntgmyFsrh0keZBOStc0rC6uzseK1bcuRo3CectldIy2
c5CqUIrG1k2P00Uk/+cTKssK5wh/VOk5oSvGrZcONah/W9uaFIDu8po1pHdA3WJ6
RW/NUIYYyiF7RVeWEPrJ+HI71ZEKXYMrzsxuIjIvNfPpdtYGREzEQBpHCaciVJaV
uKC46bbev6zYaCyzrZ8xwo4Msg==
-----END CERTIFICATE-----
